#include <math.h>
#include <stdio.h>
#include <stdlib.h>
#include <string.h>

int main(){
    int row,col;
    scanf("%d%d",&row,&col);
    int array[100][100];
    for(int i=0;i<row;i++){
        for(int j=0;j<col;j++){
            scanf("%d",&array[i][j]);
            }
        }
    int p=0,q=0;
       while(p<row&&q<col){
         int e=0;
         while(p+e<row&&q-e>=0){
              printf("%d\n",array[p+e][q-e]);
              e++;
              }
         if(q<col-1){
            q++;
            }
         else if(q==col-1){
             p++;
             }
         }
    return 0;
}